target datalayout = "e-m:e-p270:32:32-p271:32:32-p272:64:64-i64:64-i128:128-f80:128-n8:16:32:64-S128"
target triple = "x86_64-pc-linux-gnu"

; Function Attrs: inlinehint mustprogress nounwind uwtable
define linkonce_odr noundef nonnull align 4 dereferenceable(4) ptr @_ZSt3maxIiERKT_S2_S2_(ptr noundef nonnull align 4 dereferenceable(4) %0, ptr noundef nonnull align 4 dereferenceable(4) %1) #4 comdat {
  %3 = alloca ptr, align 8
  %4 = alloca ptr, align 8
  %5 = alloca ptr, align 8
  store ptr %0, ptr %4, align 8, !tbaa !3
  store ptr %1, ptr %5, align 8, !tbaa !3
  %6 = load ptr, ptr %4, align 8, !tbaa !3
  %7 = load i32, ptr %6, align 4, !tbaa !8
  %8 = load ptr, ptr %5, align 8, !tbaa !3
  %9 = load i32, ptr %8, align 4, !tbaa !8
  %10 = icmp slt i32 %7, %9
  br i1 %10, label %11, label %13

11:                                               ; preds = %2
  %12 = load ptr, ptr %5, align 8, !tbaa !3
  store ptr %12, ptr %3, align 8
  br label %15

13:                                               ; preds = %2
  %14 = load ptr, ptr %4, align 8, !tbaa !3
  store ptr %14, ptr %3, align 8
  br label %15

15:                                               ; preds = %13, %11
  %16 = load ptr, ptr %3, align 8
  ret ptr %16
}

; Function Attrs: inlinehint mustprogress nounwind uwtable
define linkonce_odr noundef nonnull align 4 dereferenceable(4) ptr @_ZSt3minIiERKT_S2_S2_(ptr noundef nonnull align 4 dereferenceable(4) %0, ptr noundef nonnull align 4 dereferenceable(4) %1) #4 comdat {
  %3 = alloca ptr, align 8
  %4 = alloca ptr, align 8
  %5 = alloca ptr, align 8
  store ptr %0, ptr %4, align 8, !tbaa !3
  store ptr %1, ptr %5, align 8, !tbaa !3
  %6 = load ptr, ptr %5, align 8, !tbaa !3
  %7 = load i32, ptr %6, align 4, !tbaa !8
  %8 = load ptr, ptr %4, align 8, !tbaa !3
  %9 = load i32, ptr %8, align 4, !tbaa !8
  %10 = icmp slt i32 %7, %9
  br i1 %10, label %11, label %13

11:                                               ; preds = %2
  %12 = load ptr, ptr %5, align 8, !tbaa !3
  store ptr %12, ptr %3, align 8
  br label %15

13:                                               ; preds = %2
  %14 = load ptr, ptr %4, align 8, !tbaa !3
  store ptr %14, ptr %3, align 8
  br label %15

15:                                               ; preds = %13, %11
  %16 = load ptr, ptr %3, align 8
  ret ptr %16
}

; Function Attrs: mustprogress uwtable
define hidden noundef i32 @_ZN2cv11cornerScoreILi12EEEiPKhPKii(ptr noundef %0, ptr noundef %1, i32 noundef %2) #0 {
  %4 = alloca ptr, align 8
  %5 = alloca ptr, align 8
  %6 = alloca i32, align 4
  %7 = alloca i32, align 4
  %8 = alloca i32, align 4
  %9 = alloca i32, align 4
  %10 = alloca i32, align 4
  %11 = alloca [23 x i16], align 16
  %12 = alloca i32, align 4
  %13 = alloca i32, align 4
  %14 = alloca i32, align 4
  %15 = alloca i32, align 4
  %16 = alloca i32, align 4
  %17 = alloca i32, align 4
  %18 = alloca i32, align 4
  %19 = alloca i32, align 4
  %20 = alloca i32, align 4
  %21 = alloca i32, align 4
  %22 = alloca i32, align 4
  %23 = alloca i32, align 4
  %24 = alloca i32, align 4
  %25 = alloca i32, align 4
  %26 = alloca i32, align 4
  %27 = alloca i32, align 4
  %28 = alloca i32, align 4
  %29 = alloca i32, align 4
  %30 = alloca i32, align 4
  %31 = alloca i32, align 4
  %32 = alloca i32, align 4
  store ptr %0, ptr %4, align 8, !tbaa !17
  store ptr %1, ptr %5, align 8, !tbaa !3
  store i32 %2, ptr %6, align 4, !tbaa !8
  call void @llvm.lifetime.start.p0(i64 4, ptr %7) #12
  store i32 6, ptr %7, align 4, !tbaa !8
  call void @llvm.lifetime.start.p0(i64 4, ptr %8) #12
  store i32 19, ptr %8, align 4, !tbaa !8
  call void @llvm.lifetime.start.p0(i64 4, ptr %9) #12
  call void @llvm.lifetime.start.p0(i64 4, ptr %10) #12
  %33 = load ptr, ptr %4, align 8, !tbaa !17
  %34 = getelementptr inbounds i8, ptr %33, i64 0
  %35 = load i8, ptr %34, align 1, !tbaa !19
  %36 = zext i8 %35 to i32
  store i32 %36, ptr %10, align 4, !tbaa !8
  call void @llvm.lifetime.start.p0(i64 46, ptr %11) #12
  store i32 0, ptr %9, align 4, !tbaa !8
  br label %37

37:                                               ; preds = %57, %3
  %38 = load i32, ptr %9, align 4, !tbaa !8
  %39 = icmp slt i32 %38, 19
  br i1 %39, label %40, label %60

40:                                               ; preds = %37
  %41 = load i32, ptr %10, align 4, !tbaa !8
  %42 = load ptr, ptr %4, align 8, !tbaa !17
  %43 = load ptr, ptr %5, align 8, !tbaa !3
  %44 = load i32, ptr %9, align 4, !tbaa !8
  %45 = sext i32 %44 to i64
  %46 = getelementptr inbounds i32, ptr %43, i64 %45
  %47 = load i32, ptr %46, align 4, !tbaa !8
  %48 = sext i32 %47 to i64
  %49 = getelementptr inbounds i8, ptr %42, i64 %48
  %50 = load i8, ptr %49, align 1, !tbaa !19
  %51 = zext i8 %50 to i32
  %52 = sub nsw i32 %41, %51
  %53 = trunc i32 %52 to i16
  %54 = load i32, ptr %9, align 4, !tbaa !8
  %55 = sext i32 %54 to i64
  %56 = getelementptr inbounds [23 x i16], ptr %11, i64 0, i64 %55
  store i16 %53, ptr %56, align 2, !tbaa !20
  br label %57

57:                                               ; preds = %40
  %58 = load i32, ptr %9, align 4, !tbaa !8
  %59 = add nsw i32 %58, 1
  store i32 %59, ptr %9, align 4, !tbaa !8
  br label %37, !llvm.loop !25

60:                                               ; preds = %37
  call void @llvm.lifetime.start.p0(i64 4, ptr %12) #12
  %61 = load i32, ptr %6, align 4, !tbaa !8
  store i32 %61, ptr %12, align 4, !tbaa !8
  store i32 0, ptr %9, align 4, !tbaa !8
  br label %62

62:                                               ; preds = %137, %60
  %63 = load i32, ptr %9, align 4, !tbaa !8
  %64 = icmp slt i32 %63, 12
  br i1 %64, label %65, label %140

65:                                               ; preds = %62
  call void @llvm.lifetime.start.p0(i64 4, ptr %13) #12
  call void @llvm.lifetime.start.p0(i64 4, ptr %14) #12
  %66 = load i32, ptr %9, align 4, !tbaa !8
  %67 = add nsw i32 %66, 1
  %68 = sext i32 %67 to i64
  %69 = getelementptr inbounds [23 x i16], ptr %11, i64 0, i64 %68
  %70 = load i16, ptr %69, align 2, !tbaa !20
  %71 = sext i16 %70 to i32
  store i32 %71, ptr %14, align 4, !tbaa !8
  call void @llvm.lifetime.start.p0(i64 4, ptr %15) #12
  %72 = load i32, ptr %9, align 4, !tbaa !8
  %73 = add nsw i32 %72, 2
  %74 = sext i32 %73 to i64
  %75 = getelementptr inbounds [23 x i16], ptr %11, i64 0, i64 %74
  %76 = load i16, ptr %75, align 2, !tbaa !20
  %77 = sext i16 %76 to i32
  store i32 %77, ptr %15, align 4, !tbaa !8
  %78 = call noundef nonnull align 4 dereferenceable(4) ptr @_ZSt3minIiERKT_S2_S2_(ptr noundef nonnull align 4 dereferenceable(4) %14, ptr noundef nonnull align 4 dereferenceable(4) %15)
  %79 = load i32, ptr %78, align 4, !tbaa !8
  call void @llvm.lifetime.end.p0(i64 4, ptr %15) #12
  call void @llvm.lifetime.end.p0(i64 4, ptr %14) #12
  store i32 %79, ptr %13, align 4, !tbaa !8
  %80 = load i32, ptr %13, align 4, !tbaa !8
  %81 = load i32, ptr %12, align 4, !tbaa !8
  %82 = icmp sle i32 %80, %81
  br i1 %82, label %83, label %84

83:                                               ; preds = %65
  store i32 7, ptr %16, align 4
  br label %134

84:                                               ; preds = %65
  call void @llvm.lifetime.start.p0(i64 4, ptr %17) #12
  %85 = load i32, ptr %9, align 4, !tbaa !8
  %86 = add nsw i32 %85, 3
  %87 = sext i32 %86 to i64
  %88 = getelementptr inbounds [23 x i16], ptr %11, i64 0, i64 %87
  %89 = load i16, ptr %88, align 2, !tbaa !20
  %90 = sext i16 %89 to i32
  store i32 %90, ptr %17, align 4, !tbaa !8
  %91 = call noundef nonnull align 4 dereferenceable(4) ptr @_ZSt3minIiERKT_S2_S2_(ptr noundef nonnull align 4 dereferenceable(4) %13, ptr noundef nonnull align 4 dereferenceable(4) %17)
  %92 = load i32, ptr %91, align 4, !tbaa !8
  store i32 %92, ptr %13, align 4, !tbaa !8
  call void @llvm.lifetime.end.p0(i64 4, ptr %17) #12
  call void @llvm.lifetime.start.p0(i64 4, ptr %18) #12
  %93 = load i32, ptr %9, align 4, !tbaa !8
  %94 = add nsw i32 %93, 4
  %95 = sext i32 %94 to i64
  %96 = getelementptr inbounds [23 x i16], ptr %11, i64 0, i64 %95
  %97 = load i16, ptr %96, align 2, !tbaa !20
  %98 = sext i16 %97 to i32
  store i32 %98, ptr %18, align 4, !tbaa !8
  %99 = call noundef nonnull align 4 dereferenceable(4) ptr @_ZSt3minIiERKT_S2_S2_(ptr noundef nonnull align 4 dereferenceable(4) %13, ptr noundef nonnull align 4 dereferenceable(4) %18)
  %100 = load i32, ptr %99, align 4, !tbaa !8
  store i32 %100, ptr %13, align 4, !tbaa !8
  call void @llvm.lifetime.end.p0(i64 4, ptr %18) #12
  call void @llvm.lifetime.start.p0(i64 4, ptr %19) #12
  %101 = load i32, ptr %9, align 4, !tbaa !8
  %102 = add nsw i32 %101, 5
  %103 = sext i32 %102 to i64
  %104 = getelementptr inbounds [23 x i16], ptr %11, i64 0, i64 %103
  %105 = load i16, ptr %104, align 2, !tbaa !20
  %106 = sext i16 %105 to i32
  store i32 %106, ptr %19, align 4, !tbaa !8
  %107 = call noundef nonnull align 4 dereferenceable(4) ptr @_ZSt3minIiERKT_S2_S2_(ptr noundef nonnull align 4 dereferenceable(4) %13, ptr noundef nonnull align 4 dereferenceable(4) %19)
  %108 = load i32, ptr %107, align 4, !tbaa !8
  store i32 %108, ptr %13, align 4, !tbaa !8
  call void @llvm.lifetime.end.p0(i64 4, ptr %19) #12
  call void @llvm.lifetime.start.p0(i64 4, ptr %20) #12
  %109 = load i32, ptr %9, align 4, !tbaa !8
  %110 = add nsw i32 %109, 6
  %111 = sext i32 %110 to i64
  %112 = getelementptr inbounds [23 x i16], ptr %11, i64 0, i64 %111
  %113 = load i16, ptr %112, align 2, !tbaa !20
  %114 = sext i16 %113 to i32
  store i32 %114, ptr %20, align 4, !tbaa !8
  %115 = call noundef nonnull align 4 dereferenceable(4) ptr @_ZSt3minIiERKT_S2_S2_(ptr noundef nonnull align 4 dereferenceable(4) %13, ptr noundef nonnull align 4 dereferenceable(4) %20)
  %116 = load i32, ptr %115, align 4, !tbaa !8
  store i32 %116, ptr %13, align 4, !tbaa !8
  call void @llvm.lifetime.end.p0(i64 4, ptr %20) #12
  call void @llvm.lifetime.start.p0(i64 4, ptr %21) #12
  %117 = load i32, ptr %9, align 4, !tbaa !8
  %118 = sext i32 %117 to i64
  %119 = getelementptr inbounds [23 x i16], ptr %11, i64 0, i64 %118
  %120 = load i16, ptr %119, align 2, !tbaa !20
  %121 = sext i16 %120 to i32
  store i32 %121, ptr %21, align 4, !tbaa !8
  %122 = call noundef nonnull align 4 dereferenceable(4) ptr @_ZSt3minIiERKT_S2_S2_(ptr noundef nonnull align 4 dereferenceable(4) %13, ptr noundef nonnull align 4 dereferenceable(4) %21)
  %123 = call noundef nonnull align 4 dereferenceable(4) ptr @_ZSt3maxIiERKT_S2_S2_(ptr noundef nonnull align 4 dereferenceable(4) %12, ptr noundef nonnull align 4 dereferenceable(4) %122)
  %124 = load i32, ptr %123, align 4, !tbaa !8
  store i32 %124, ptr %12, align 4, !tbaa !8
  call void @llvm.lifetime.end.p0(i64 4, ptr %21) #12
  call void @llvm.lifetime.start.p0(i64 4, ptr %22) #12
  %125 = load i32, ptr %9, align 4, !tbaa !8
  %126 = add nsw i32 %125, 7
  %127 = sext i32 %126 to i64
  %128 = getelementptr inbounds [23 x i16], ptr %11, i64 0, i64 %127
  %129 = load i16, ptr %128, align 2, !tbaa !20
  %130 = sext i16 %129 to i32
  store i32 %130, ptr %22, align 4, !tbaa !8
  %131 = call noundef nonnull align 4 dereferenceable(4) ptr @_ZSt3minIiERKT_S2_S2_(ptr noundef nonnull align 4 dereferenceable(4) %13, ptr noundef nonnull align 4 dereferenceable(4) %22)
  %132 = call noundef nonnull align 4 dereferenceable(4) ptr @_ZSt3maxIiERKT_S2_S2_(ptr noundef nonnull align 4 dereferenceable(4) %12, ptr noundef nonnull align 4 dereferenceable(4) %131)
  %133 = load i32, ptr %132, align 4, !tbaa !8
  store i32 %133, ptr %12, align 4, !tbaa !8
  call void @llvm.lifetime.end.p0(i64 4, ptr %22) #12
  store i32 0, ptr %16, align 4
  br label %134

134:                                              ; preds = %84, %83
  call void @llvm.lifetime.end.p0(i64 4, ptr %13) #12
  %135 = load i32, ptr %16, align 4
  switch i32 %135, label %226 [
    i32 0, label %136
    i32 7, label %137
  ]

136:                                              ; preds = %134
  br label %137

137:                                              ; preds = %136, %134
  %138 = load i32, ptr %9, align 4, !tbaa !8
  %139 = add nsw i32 %138, 2
  store i32 %139, ptr %9, align 4, !tbaa !8
  br label %62, !llvm.loop !26

140:                                              ; preds = %62
  call void @llvm.lifetime.start.p0(i64 4, ptr %23) #12
  %141 = load i32, ptr %12, align 4, !tbaa !8
  %142 = sub nsw i32 0, %141
  store i32 %142, ptr %23, align 4, !tbaa !8
  store i32 0, ptr %9, align 4, !tbaa !8
  br label %143

143:                                              ; preds = %218, %140
  %144 = load i32, ptr %9, align 4, !tbaa !8
  %145 = icmp slt i32 %144, 12
  br i1 %145, label %146, label %221

146:                                              ; preds = %143
  call void @llvm.lifetime.start.p0(i64 4, ptr %24) #12
  call void @llvm.lifetime.start.p0(i64 4, ptr %25) #12
  %147 = load i32, ptr %9, align 4, !tbaa !8
  %148 = add nsw i32 %147, 1
  %149 = sext i32 %148 to i64
  %150 = getelementptr inbounds [23 x i16], ptr %11, i64 0, i64 %149
  %151 = load i16, ptr %150, align 2, !tbaa !20
  %152 = sext i16 %151 to i32
  store i32 %152, ptr %25, align 4, !tbaa !8
  call void @llvm.lifetime.start.p0(i64 4, ptr %26) #12
  %153 = load i32, ptr %9, align 4, !tbaa !8
  %154 = add nsw i32 %153, 2
  %155 = sext i32 %154 to i64
  %156 = getelementptr inbounds [23 x i16], ptr %11, i64 0, i64 %155
  %157 = load i16, ptr %156, align 2, !tbaa !20
  %158 = sext i16 %157 to i32
  store i32 %158, ptr %26, align 4, !tbaa !8
  %159 = call noundef nonnull align 4 dereferenceable(4) ptr @_ZSt3maxIiERKT_S2_S2_(ptr noundef nonnull align 4 dereferenceable(4) %25, ptr noundef nonnull align 4 dereferenceable(4) %26)
  %160 = load i32, ptr %159, align 4, !tbaa !8
  call void @llvm.lifetime.end.p0(i64 4, ptr %26) #12
  call void @llvm.lifetime.end.p0(i64 4, ptr %25) #12
  store i32 %160, ptr %24, align 4, !tbaa !8
  call void @llvm.lifetime.start.p0(i64 4, ptr %27) #12
  %161 = load i32, ptr %9, align 4, !tbaa !8
  %162 = add nsw i32 %161, 3
  %163 = sext i32 %162 to i64
  %164 = getelementptr inbounds [23 x i16], ptr %11, i64 0, i64 %163
  %165 = load i16, ptr %164, align 2, !tbaa !20
  %166 = sext i16 %165 to i32
  store i32 %166, ptr %27, align 4, !tbaa !8
  %167 = call noundef nonnull align 4 dereferenceable(4) ptr @_ZSt3maxIiERKT_S2_S2_(ptr noundef nonnull align 4 dereferenceable(4) %24, ptr noundef nonnull align 4 dereferenceable(4) %27)
  %168 = load i32, ptr %167, align 4, !tbaa !8
  store i32 %168, ptr %24, align 4, !tbaa !8
  call void @llvm.lifetime.end.p0(i64 4, ptr %27) #12
  call void @llvm.lifetime.start.p0(i64 4, ptr %28) #12
  %169 = load i32, ptr %9, align 4, !tbaa !8
  %170 = add nsw i32 %169, 4
  %171 = sext i32 %170 to i64
  %172 = getelementptr inbounds [23 x i16], ptr %11, i64 0, i64 %171
  %173 = load i16, ptr %172, align 2, !tbaa !20
  %174 = sext i16 %173 to i32
  store i32 %174, ptr %28, align 4, !tbaa !8
  %175 = call noundef nonnull align 4 dereferenceable(4) ptr @_ZSt3maxIiERKT_S2_S2_(ptr noundef nonnull align 4 dereferenceable(4) %24, ptr noundef nonnull align 4 dereferenceable(4) %28)
  %176 = load i32, ptr %175, align 4, !tbaa !8
  store i32 %176, ptr %24, align 4, !tbaa !8
  call void @llvm.lifetime.end.p0(i64 4, ptr %28) #12
  %177 = load i32, ptr %24, align 4, !tbaa !8
  %178 = load i32, ptr %23, align 4, !tbaa !8
  %179 = icmp sge i32 %177, %178
  br i1 %179, label %180, label %181

180:                                              ; preds = %146
  store i32 10, ptr %16, align 4
  br label %215

181:                                              ; preds = %146
  call void @llvm.lifetime.start.p0(i64 4, ptr %29) #12
  %182 = load i32, ptr %9, align 4, !tbaa !8
  %183 = add nsw i32 %182, 5
  %184 = sext i32 %183 to i64
  %185 = getelementptr inbounds [23 x i16], ptr %11, i64 0, i64 %184
  %186 = load i16, ptr %185, align 2, !tbaa !20
  %187 = sext i16 %186 to i32
  store i32 %187, ptr %29, align 4, !tbaa !8
  %188 = call noundef nonnull align 4 dereferenceable(4) ptr @_ZSt3maxIiERKT_S2_S2_(ptr noundef nonnull align 4 dereferenceable(4) %24, ptr noundef nonnull align 4 dereferenceable(4) %29)
  %189 = load i32, ptr %188, align 4, !tbaa !8
  store i32 %189, ptr %24, align 4, !tbaa !8
  call void @llvm.lifetime.end.p0(i64 4, ptr %29) #12
  call void @llvm.lifetime.start.p0(i64 4, ptr %30) #12
  %190 = load i32, ptr %9, align 4, !tbaa !8
  %191 = add nsw i32 %190, 6
  %192 = sext i32 %191 to i64
  %193 = getelementptr inbounds [23 x i16], ptr %11, i64 0, i64 %192
  %194 = load i16, ptr %193, align 2, !tbaa !20
  %195 = sext i16 %194 to i32
  store i32 %195, ptr %30, align 4, !tbaa !8
  %196 = call noundef nonnull align 4 dereferenceable(4) ptr @_ZSt3maxIiERKT_S2_S2_(ptr noundef nonnull align 4 dereferenceable(4) %24, ptr noundef nonnull align 4 dereferenceable(4) %30)
  %197 = load i32, ptr %196, align 4, !tbaa !8
  store i32 %197, ptr %24, align 4, !tbaa !8
  call void @llvm.lifetime.end.p0(i64 4, ptr %30) #12
  call void @llvm.lifetime.start.p0(i64 4, ptr %31) #12
  %198 = load i32, ptr %9, align 4, !tbaa !8
  %199 = sext i32 %198 to i64
  %200 = getelementptr inbounds [23 x i16], ptr %11, i64 0, i64 %199
  %201 = load i16, ptr %200, align 2, !tbaa !20
  %202 = sext i16 %201 to i32
  store i32 %202, ptr %31, align 4, !tbaa !8
  %203 = call noundef nonnull align 4 dereferenceable(4) ptr @_ZSt3maxIiERKT_S2_S2_(ptr noundef nonnull align 4 dereferenceable(4) %24, ptr noundef nonnull align 4 dereferenceable(4) %31)
  %204 = call noundef nonnull align 4 dereferenceable(4) ptr @_ZSt3minIiERKT_S2_S2_(ptr noundef nonnull align 4 dereferenceable(4) %23, ptr noundef nonnull align 4 dereferenceable(4) %203)
  %205 = load i32, ptr %204, align 4, !tbaa !8
  store i32 %205, ptr %23, align 4, !tbaa !8
  call void @llvm.lifetime.end.p0(i64 4, ptr %31) #12
  call void @llvm.lifetime.start.p0(i64 4, ptr %32) #12
  %206 = load i32, ptr %9, align 4, !tbaa !8
  %207 = add nsw i32 %206, 7
  %208 = sext i32 %207 to i64
  %209 = getelementptr inbounds [23 x i16], ptr %11, i64 0, i64 %208
  %210 = load i16, ptr %209, align 2, !tbaa !20
  %211 = sext i16 %210 to i32
  store i32 %211, ptr %32, align 4, !tbaa !8
  %212 = call noundef nonnull align 4 dereferenceable(4) ptr @_ZSt3maxIiERKT_S2_S2_(ptr noundef nonnull align 4 dereferenceable(4) %24, ptr noundef nonnull align 4 dereferenceable(4) %32)
  %213 = call noundef nonnull align 4 dereferenceable(4) ptr @_ZSt3minIiERKT_S2_S2_(ptr noundef nonnull align 4 dereferenceable(4) %23, ptr noundef nonnull align 4 dereferenceable(4) %212)
  %214 = load i32, ptr %213, align 4, !tbaa !8
  store i32 %214, ptr %23, align 4, !tbaa !8
  call void @llvm.lifetime.end.p0(i64 4, ptr %32) #12
  store i32 0, ptr %16, align 4
  br label %215

215:                                              ; preds = %181, %180
  call void @llvm.lifetime.end.p0(i64 4, ptr %24) #12
  %216 = load i32, ptr %16, align 4
  switch i32 %216, label %226 [
    i32 0, label %217
    i32 10, label %218
  ]

217:                                              ; preds = %215
  br label %218

218:                                              ; preds = %217, %215
  %219 = load i32, ptr %9, align 4, !tbaa !8
  %220 = add nsw i32 %219, 2
  store i32 %220, ptr %9, align 4, !tbaa !8
  br label %143, !llvm.loop !27

221:                                              ; preds = %143
  %222 = load i32, ptr %23, align 4, !tbaa !8
  %223 = sub nsw i32 0, %222
  %224 = sub nsw i32 %223, 1
  store i32 %224, ptr %6, align 4, !tbaa !8
  call void @llvm.lifetime.end.p0(i64 4, ptr %23) #12
  call void @llvm.lifetime.end.p0(i64 4, ptr %12) #12
  %225 = load i32, ptr %6, align 4, !tbaa !8
  store i32 1, ptr %16, align 4
  call void @llvm.lifetime.end.p0(i64 46, ptr %11) #12
  call void @llvm.lifetime.end.p0(i64 4, ptr %10) #12
  call void @llvm.lifetime.end.p0(i64 4, ptr %9) #12
  call void @llvm.lifetime.end.p0(i64 4, ptr %8) #12
  call void @llvm.lifetime.end.p0(i64 4, ptr %7) #12
  ret i32 %225

226:                                              ; preds = %215, %134
  unreachable
}